; Function Attrs: mustprogress nounwind uwtable
define void @_ZN5boost6locale9generatorD2Ev(ptr nocapture noundef nonnull readonly align 8 dereferenceable(8) %0) unnamed_addr #10 align 2 {
  %2 = load ptr, ptr %0, align 8, !tbaa !17
  %3 = icmp eq ptr %2, null
  br i1 %3, label %_ZN5boost6locale8hold_ptrINS0_9generator4dataEED2Ev.exit, label %4

4:                                                ; preds = %1
  tail call void @_ZN5boost6locale9generator4dataD2Ev(ptr noundef nonnull align 8 dereferenceable(208) %2) #27
  tail call void @_ZdlPvm(ptr noundef nonnull %2, i64 noundef 208) #31
  br label %_ZN5boost6locale8hold_ptrINS0_9generator4dataEED2Ev.exit

_ZN5boost6locale8hold_ptrINS0_9generator4dataEED2Ev.exit: ; preds = %1, %4
  ret void
}